; Function Attrs: nofree norecurse nosync nounwind memory(readwrite, inaccessiblemem: none) uwtable
define internal noundef i32 @filter_noinverse_dbl_clip(ptr readnone captures(none) %0, ptr noundef readonly captures(none) %1, i32 noundef %2, i32 noundef %3) #6 {
  %5 = getelementptr inbounds nuw i8, ptr %1, i64 8
  %6 = load ptr, ptr %5, align 8, !tbaa !47
  %7 = getelementptr inbounds nuw i8, ptr %1, i64 24
  %8 = load i32, ptr %7, align 8, !tbaa !48
  %9 = getelementptr inbounds nuw i8, ptr %1, i64 28
  %10 = load i32, ptr %9, align 4, !tbaa !50
  %11 = getelementptr inbounds nuw i8, ptr %1, i64 32
  %12 = load float, ptr %11, align 8, !tbaa !53
  %13 = fpext nsz float %12 to double
  %14 = mul nsw i32 %10, %2
  %15 = sdiv i32 %14, %3
  %16 = add nsw i32 %2, 1
  %17 = mul nsw i32 %10, %16
  %18 = sdiv i32 %17, %3
  %19 = load ptr, ptr %6, align 8, !tbaa !55
  %20 = icmp slt i32 %15, %18
  br i1 %20, label %.lr.ph51, label %._crit_edge52

.lr.ph51:                                         ; preds = %4
  %21 = getelementptr inbounds nuw i8, ptr %1, i64 16
  %22 = load ptr, ptr %21, align 8, !tbaa !46
  %23 = load ptr, ptr %1, align 8, !tbaa !44
  %24 = load ptr, ptr %22, align 8, !tbaa !55
  %25 = load ptr, ptr %23, align 8, !tbaa !55
  %26 = icmp sgt i32 %8, 0
  %27 = sext i32 %10 to i64
  br i1 %26, label %.lr.ph.us.preheader, label %._crit_edge52

.lr.ph.us.preheader:                              ; preds = %.lr.ph51
  %28 = sext i32 %15 to i64
  %wide.trip.count = sext i32 %18 to i64
  br label %.lr.ph.us

.lr.ph.us:                                        ; preds = %.lr.ph.us.preheader, %._crit_edge.us
  %indvars.iv = phi i64 [ %28, %.lr.ph.us.preheader ], [ %indvars.iv.next, %._crit_edge.us ]
  %29 = getelementptr inbounds double, ptr %19, i64 %indvars.iv
  br label %30

30:                                               ; preds = %.lr.ph.us, %30
  %.04348.us = phi i32 [ 0, %.lr.ph.us ], [ %43, %30 ]
  %.04447.us = phi ptr [ %25, %.lr.ph.us ], [ %41, %30 ]
  %.04546.us = phi ptr [ %24, %.lr.ph.us ], [ %42, %30 ]
  %31 = getelementptr inbounds double, ptr %.04546.us, i64 %indvars.iv
  %32 = load double, ptr %31, align 8, !tbaa !76
  %33 = load double, ptr %29, align 8, !tbaa !76
  %34 = fsub nsz double %32, %33
  %35 = tail call nsz double @llvm.fmuladd.f64(double %34, double %13, double %32)
  %36 = getelementptr inbounds double, ptr %.04447.us, i64 %indvars.iv
  store double %35, ptr %36, align 8, !tbaa !76
  store double %32, ptr %29, align 8, !tbaa !76
  %37 = load double, ptr %36, align 8, !tbaa !76
  %38 = fcmp nsz ogt double %37, -1.000000e+00
  %39 = select nsz i1 %38, double %37, double -1.000000e+00
  %40 = fcmp nsz ogt double %39, 1.000000e+00
  %..i.us = select nsz i1 %40, double 1.000000e+00, double %39
  store double %..i.us, ptr %36, align 8, !tbaa !76
  %41 = getelementptr inbounds double, ptr %.04447.us, i64 %27
  %42 = getelementptr inbounds double, ptr %.04546.us, i64 %27
  %43 = add nuw nsw i32 %.04348.us, 1
  %exitcond.not = icmp eq i32 %43, %8
  br i1 %exitcond.not, label %._crit_edge.us, label %30, !llvm.loop !84

._crit_edge.us:                                   ; preds = %30
  %indvars.iv.next = add nsw i64 %indvars.iv, 1
  %exitcond55.not = icmp eq i64 %indvars.iv.next, %wide.trip.count
  br i1 %exitcond55.not, label %._crit_edge52, label %.lr.ph.us, !llvm.loop !85

._crit_edge52:                                    ; preds = %._crit_edge.us, %.lr.ph51, %4
  ret i32 0
}